Certificate:
    Data:
        Version: 3 (0x2)
        Serial Number:
            8c:c8:9f:54:ea:e5:ac:8b:1a:0e:10:3a:dc:a1:51:d2
    Signature Algorithm: sha256WithRSAEncryption
        Issuer: C=CN, ST=Zhejiang, L=HangZhou, O=opsbase.cn, OU=Organizational Unit, CN=Easy-RSA CA/emailAddress=admin@attacker.club
        Validity
            Not Before: Oct 13 14:55:42 2020 GMT
            Not After : Sep 20 14:55:42 2119 GMT
        Subject: C=CN, ST=Zhejiang, L=HangZhou, O=opsbase.cn, OU=Organizational Unit, CN=server/emailAddress=admin@attacker.club
        Subject Public Key Info:
            Public Key Algorithm: rsaEncryption
                Public-Key: (2048 bit)
                Modulus:
                    00:ab:f4:84:ab:ad:0d:5e:94:65:26:88:48:ad:7b:
                    fe:cc:1e:f3:8e:c7:55:f2:22:2b:61:a7:d0:90:cd:
                    fb:94:1c:ec:95:7b:ab:19:1d:4f:17:07:ee:44:f4:
                    bc:99:a2:2b:6a:b9:9c:a2:0c:26:ee:0f:20:8d:57:
                    50:a2:9a:56:ff:e5:fe:61:65:94:9e:38:49:bc:b2:
                    dd:17:e7:4d:63:1a:4d:60:52:7f:2b:8b:03:b8:80:
                    e6:a0:02:e8:05:28:89:3b:e7:e4:f1:25:f2:0a:ed:
                    0b:08:3a:a1:e2:69:79:00:a7:6a:0a:f7:ef:f8:1b:
                    72:08:82:a8:1e:71:6d:af:1a:60:29:8c:c6:fb:16:
                    ad:89:e0:e1:ae:92:f6:bc:6c:70:55:62:d8:8c:d9:
                    de:e7:b9:66:26:39:42:e8:1e:23:3e:4e:86:63:f2:
                    1d:00:21:45:49:49:44:22:4b:a1:e2:0c:41:0c:48:
                    bd:41:27:24:1b:25:90:5d:60:e3:bf:32:89:95:86:
                    e1:7a:36:d7:e1:c8:a6:dc:2c:b4:7c:cd:f3:f1:74:
                    24:99:e2:61:3f:84:7b:af:13:17:8a:20:d5:28:f3:
                    5b:18:6b:37:3a:9e:bb:ea:6b:2a:59:f9:d5:c3:18:
                    1b:43:f2:b6:f3:6c:c1:88:06:84:cd:b9:fe:4d:15:
                    91:2f
                Exponent: 65537 (0x10001)
        X509v3 extensions:
            X509v3 Basic Constraints: 
                CA:FALSE
            X509v3 Subject Key Identifier: 
                97:77:62:32:8A:B9:6A:0A:34:1E:2D:2B:02:D5:75:5F:9D:6C:79:16
            X509v3 Authority Key Identifier: 
                keyid:4E:59:7A:A4:1E:99:29:9F:DF:55:FE:C4:DD:FE:59:A3:BF:DA:E9:8B
                DirName:/C=CN/ST=Zhejiang/L=HangZhou/O=opsbase.cn/OU=Organizational Unit/CN=Easy-RSA CA/emailAddress=admin@attacker.club
                serial:AE:C9:39:F6:C1:7D:6E:0B

            X509v3 Extended Key Usage: 
                TLS Web Server Authentication
            X509v3 Key Usage: 
                Digital Signature, Key Encipherment
            X509v3 Subject Alternative Name: 
                DNS:server
    Signature Algorithm: sha256WithRSAEncryption
         52:ce:16:81:e4:1f:aa:0a:88:93:5b:62:16:53:ac:b7:b6:9a:
         57:7c:7b:94:9e:a5:39:e4:b9:f4:56:9e:15:52:34:11:e9:f7:
         08:3d:07:53:89:29:4e:97:d9:32:9a:b0:e1:30:16:27:a8:e0:
         9d:6a:a4:d9:dc:01:a4:20:d3:2b:c2:87:e5:b7:15:f6:5f:dd:
         83:07:9a:0e:a0:9f:4e:10:06:d2:ba:2c:40:a0:e8:58:47:43:
         9b:68:69:8a:b6:70:57:99:7e:7a:a5:44:36:5a:0e:c4:70:e5:
         e4:e8:1e:13:af:99:1a:96:58:bb:a5:e5:24:13:af:32:5b:63:
         e9:04:a0:39:f3:b5:73:be:71:04:26:18:2f:80:e6:94:80:6d:
         3e:a5:84:05:ce:5e:14:2d:a1:5a:3b:d0:85:8a:8f:a4:3b:48:
         ba:7e:6b:65:7e:2a:61:ac:80:13:f3:f6:fa:2a:df:67:5e:80:
         e9:6b:3c:50:7f:1d:01:b7:d0:99:1f:12:9c:e7:32:62:e5:45:
         61:25:ac:a3:c1:09:ff:89:73:6e:bd:77:f7:3c:a5:f1:4a:aa:
         56:8a:58:64:dc:e8:23:77:14:c8:c4:fa:45:6b:3d:5c:1b:10:
         e7:29:9d:30:30:c4:7e:cb:37:e8:13:52:a2:ca:af:c5:5a:4a:
         66:51:2b:33
-----BEGIN CERTIFICATE-----
MIIFBzCCA++gAwIBAgIRAIzIn1Tq5ayLGg4QOtyhUdIwDQYJKoZIhvcNAQELBQAw
gaAxCzAJBgNVBAYTAkNOMREwDwYDVQQIDAhaaGVqaWFuZzERMA8GA1UEBwwISGFu
Z1pob3UxEzARBgNVBAoMCm9wc2Jhc2UuY24xHDAaBgNVBAsME09yZ2FuaXphdGlv
bmFsIFVuaXQxFDASBgNVBAMMC0Vhc3ktUlNBIENBMSIwIAYJKoZIhvcNAQkBFhNh
ZG1pbkBhdHRhY2tlci5jbHViMCAXDTIwMTAxMzE0NTU0MloYDzIxMTkwOTIwMTQ1
NTQyWjCBmzELMAkGA1UEBhMCQ04xETAPBgNVBAgMCFpoZWppYW5nMREwDwYDVQQH
DAhIYW5nWmhvdTETMBEGA1UECgwKb3BzYmFzZS5jbjEcMBoGA1UECwwTT3JnYW5p
emF0aW9uYWwgVW5pdDEPMA0GA1UEAwwGc2VydmVyMSIwIAYJKoZIhvcNAQkBFhNh
ZG1pbkBhdHRhY2tlci5jbHViMIIBIjANBgkqhkiG9w0BAQEFAAOCAQ8AMIIBCgKC
AQEAq/SEq60NXpRlJohIrXv+zB7zjsdV8iIrYafQkM37lBzslXurGR1PFwfuRPS8
maIrarmcogwm7g8gjVdQoppW/+X+YWWUnjhJvLLdF+dNYxpNYFJ/K4sDuIDmoALo
BSiJO+fk8SXyCu0LCDqh4ml5AKdqCvfv+BtyCIKoHnFtrxpgKYzG+xatieDhrpL2
vGxwVWLYjNne57lmJjlC6B4jPk6GY/IdACFFSUlEIkuh4gxBDEi9QSckGyWQXWDj
vzKJlYbhejbX4cim3Cy0fM3z8XQkmeJhP4R7rxMXiiDVKPNbGGs3Op676msqWfnV
wxgbQ/K282zBiAaEzbn+TRWRLwIDAQABo4IBOzCCATcwCQYDVR0TBAIwADAdBgNV
HQ4EFgQUl3diMoq5ago0Hi0rAtV1X51seRYwgdUGA1UdIwSBzTCByoAUTll6pB6Z
KZ/fVf7E3f5Zo7/a6YuhgaakgaMwgaAxCzAJBgNVBAYTAkNOMREwDwYDVQQIDAha
aGVqaWFuZzERMA8GA1UEBwwISGFuZ1pob3UxEzARBgNVBAoMCm9wc2Jhc2UuY24x
HDAaBgNVBAsME09yZ2FuaXphdGlvbmFsIFVuaXQxFDASBgNVBAMMC0Vhc3ktUlNB
IENBMSIwIAYJKoZIhvcNAQkBFhNhZG1pbkBhdHRhY2tlci5jbHViggkArsk59sF9
bgswEwYDVR0lBAwwCgYIKwYBBQUHAwEwCwYDVR0PBAQDAgWgMBEGA1UdEQQKMAiC
BnNlcnZlcjANBgkqhkiG9w0BAQsFAAOCAQEAUs4WgeQfqgqIk1tiFlOst7aaV3x7
lJ6lOeS59FaeFVI0Een3CD0HU4kpTpfZMpqw4TAWJ6jgnWqk2dwBpCDTK8KH5bcV
9l/dgweaDqCfThAG0rosQKDoWEdDm2hpirZwV5l+eqVENloOxHDl5OgeE6+ZGpZY
u6XlJBOvMltj6QSgOfO1c75xBCYYL4DmlIBtPqWEBc5eFC2hWjvQhYqPpDtIun5r
ZX4qYayAE/P2+irfZ16A6Ws8UH8dAbfQmR8SnOcyYuVFYSWso8EJ/4lzbr139zyl
8UqqVopYZNzoI3cUyMT6RWs9XBsQ5ymdMDDEfss36BNSosqvxVpKZlErMw==
-----END CERTIFICATE-----
